
Turtle_5K_IO_Board.elf:     file format elf32-avr

Sections:
Idx Name          Size      VMA       LMA       File off  Algn
  0 .text         0000079e  00000000  00000000  00000074  2**1
                  CONTENTS, ALLOC, LOAD, READONLY, CODE
  1 .bss          00000017  00802000  00802000  00000812  2**0
                  ALLOC
  2 .comment      00000030  00000000  00000000  00000812  2**0
                  CONTENTS, READONLY

Disassembly of section .text:

00000000 <__vectors>:
   0:	0c 94 f4 00 	jmp	0x1e8	; 0x1e8 <__ctors_end>
   4:	0c 94 06 01 	jmp	0x20c	; 0x20c <__bad_interrupt>
   8:	0c 94 06 01 	jmp	0x20c	; 0x20c <__bad_interrupt>
   c:	0c 94 06 01 	jmp	0x20c	; 0x20c <__bad_interrupt>
  10:	0c 94 06 01 	jmp	0x20c	; 0x20c <__bad_interrupt>
  14:	0c 94 06 01 	jmp	0x20c	; 0x20c <__bad_interrupt>
  18:	0c 94 06 01 	jmp	0x20c	; 0x20c <__bad_interrupt>
  1c:	0c 94 06 01 	jmp	0x20c	; 0x20c <__bad_interrupt>
  20:	0c 94 06 01 	jmp	0x20c	; 0x20c <__bad_interrupt>
  24:	0c 94 06 01 	jmp	0x20c	; 0x20c <__bad_interrupt>
  28:	0c 94 06 01 	jmp	0x20c	; 0x20c <__bad_interrupt>
  2c:	0c 94 06 01 	jmp	0x20c	; 0x20c <__bad_interrupt>
  30:	0c 94 06 01 	jmp	0x20c	; 0x20c <__bad_interrupt>
  34:	0c 94 06 01 	jmp	0x20c	; 0x20c <__bad_interrupt>
  38:	0c 94 06 01 	jmp	0x20c	; 0x20c <__bad_interrupt>
  3c:	0c 94 06 01 	jmp	0x20c	; 0x20c <__bad_interrupt>
  40:	0c 94 06 01 	jmp	0x20c	; 0x20c <__bad_interrupt>
  44:	0c 94 06 01 	jmp	0x20c	; 0x20c <__bad_interrupt>
  48:	0c 94 06 01 	jmp	0x20c	; 0x20c <__bad_interrupt>
  4c:	0c 94 06 01 	jmp	0x20c	; 0x20c <__bad_interrupt>
  50:	0c 94 06 01 	jmp	0x20c	; 0x20c <__bad_interrupt>
  54:	0c 94 06 01 	jmp	0x20c	; 0x20c <__bad_interrupt>
  58:	0c 94 06 01 	jmp	0x20c	; 0x20c <__bad_interrupt>
  5c:	0c 94 06 01 	jmp	0x20c	; 0x20c <__bad_interrupt>
  60:	0c 94 06 01 	jmp	0x20c	; 0x20c <__bad_interrupt>
  64:	0c 94 f9 01 	jmp	0x3f2	; 0x3f2 <__vector_25>
  68:	0c 94 06 01 	jmp	0x20c	; 0x20c <__bad_interrupt>
  6c:	0c 94 cc 01 	jmp	0x398	; 0x398 <__vector_27>
  70:	0c 94 06 01 	jmp	0x20c	; 0x20c <__bad_interrupt>
  74:	0c 94 06 01 	jmp	0x20c	; 0x20c <__bad_interrupt>
  78:	0c 94 06 01 	jmp	0x20c	; 0x20c <__bad_interrupt>
  7c:	0c 94 06 01 	jmp	0x20c	; 0x20c <__bad_interrupt>
  80:	0c 94 06 01 	jmp	0x20c	; 0x20c <__bad_interrupt>
  84:	0c 94 06 01 	jmp	0x20c	; 0x20c <__bad_interrupt>
  88:	0c 94 06 01 	jmp	0x20c	; 0x20c <__bad_interrupt>
  8c:	0c 94 06 01 	jmp	0x20c	; 0x20c <__bad_interrupt>
  90:	0c 94 06 01 	jmp	0x20c	; 0x20c <__bad_interrupt>
  94:	0c 94 06 01 	jmp	0x20c	; 0x20c <__bad_interrupt>
  98:	0c 94 06 01 	jmp	0x20c	; 0x20c <__bad_interrupt>
  9c:	0c 94 06 01 	jmp	0x20c	; 0x20c <__bad_interrupt>
  a0:	0c 94 06 01 	jmp	0x20c	; 0x20c <__bad_interrupt>
  a4:	0c 94 06 01 	jmp	0x20c	; 0x20c <__bad_interrupt>
  a8:	0c 94 06 01 	jmp	0x20c	; 0x20c <__bad_interrupt>
  ac:	0c 94 06 01 	jmp	0x20c	; 0x20c <__bad_interrupt>
  b0:	0c 94 06 01 	jmp	0x20c	; 0x20c <__bad_interrupt>
  b4:	0c 94 06 01 	jmp	0x20c	; 0x20c <__bad_interrupt>
  b8:	0c 94 06 01 	jmp	0x20c	; 0x20c <__bad_interrupt>
  bc:	0c 94 22 03 	jmp	0x644	; 0x644 <__vector_47>
  c0:	0c 94 06 01 	jmp	0x20c	; 0x20c <__bad_interrupt>
  c4:	0c 94 06 01 	jmp	0x20c	; 0x20c <__bad_interrupt>
  c8:	0c 94 06 01 	jmp	0x20c	; 0x20c <__bad_interrupt>
  cc:	0c 94 06 01 	jmp	0x20c	; 0x20c <__bad_interrupt>
  d0:	0c 94 06 01 	jmp	0x20c	; 0x20c <__bad_interrupt>
  d4:	0c 94 06 01 	jmp	0x20c	; 0x20c <__bad_interrupt>
  d8:	0c 94 06 01 	jmp	0x20c	; 0x20c <__bad_interrupt>
  dc:	0c 94 06 01 	jmp	0x20c	; 0x20c <__bad_interrupt>
  e0:	0c 94 06 01 	jmp	0x20c	; 0x20c <__bad_interrupt>
  e4:	0c 94 06 01 	jmp	0x20c	; 0x20c <__bad_interrupt>
  e8:	0c 94 06 01 	jmp	0x20c	; 0x20c <__bad_interrupt>
  ec:	0c 94 06 01 	jmp	0x20c	; 0x20c <__bad_interrupt>
  f0:	0c 94 06 01 	jmp	0x20c	; 0x20c <__bad_interrupt>
  f4:	0c 94 06 01 	jmp	0x20c	; 0x20c <__bad_interrupt>
  f8:	0c 94 06 01 	jmp	0x20c	; 0x20c <__bad_interrupt>
  fc:	0c 94 06 01 	jmp	0x20c	; 0x20c <__bad_interrupt>
 100:	0c 94 06 01 	jmp	0x20c	; 0x20c <__bad_interrupt>
 104:	0c 94 06 01 	jmp	0x20c	; 0x20c <__bad_interrupt>
 108:	0c 94 06 01 	jmp	0x20c	; 0x20c <__bad_interrupt>
 10c:	0c 94 06 01 	jmp	0x20c	; 0x20c <__bad_interrupt>
 110:	0c 94 06 01 	jmp	0x20c	; 0x20c <__bad_interrupt>
 114:	0c 94 06 01 	jmp	0x20c	; 0x20c <__bad_interrupt>
 118:	0c 94 06 01 	jmp	0x20c	; 0x20c <__bad_interrupt>
 11c:	0c 94 06 01 	jmp	0x20c	; 0x20c <__bad_interrupt>
 120:	0c 94 06 01 	jmp	0x20c	; 0x20c <__bad_interrupt>
 124:	0c 94 06 01 	jmp	0x20c	; 0x20c <__bad_interrupt>
 128:	0c 94 06 01 	jmp	0x20c	; 0x20c <__bad_interrupt>
 12c:	0c 94 06 01 	jmp	0x20c	; 0x20c <__bad_interrupt>
 130:	0c 94 06 01 	jmp	0x20c	; 0x20c <__bad_interrupt>
 134:	0c 94 06 01 	jmp	0x20c	; 0x20c <__bad_interrupt>
 138:	0c 94 06 01 	jmp	0x20c	; 0x20c <__bad_interrupt>
 13c:	0c 94 06 01 	jmp	0x20c	; 0x20c <__bad_interrupt>
 140:	0c 94 06 01 	jmp	0x20c	; 0x20c <__bad_interrupt>
 144:	0c 94 06 01 	jmp	0x20c	; 0x20c <__bad_interrupt>
 148:	0c 94 06 01 	jmp	0x20c	; 0x20c <__bad_interrupt>
 14c:	0c 94 06 01 	jmp	0x20c	; 0x20c <__bad_interrupt>
 150:	0c 94 06 01 	jmp	0x20c	; 0x20c <__bad_interrupt>
 154:	0c 94 06 01 	jmp	0x20c	; 0x20c <__bad_interrupt>
 158:	0c 94 06 01 	jmp	0x20c	; 0x20c <__bad_interrupt>
 15c:	0c 94 06 01 	jmp	0x20c	; 0x20c <__bad_interrupt>
 160:	0c 94 06 01 	jmp	0x20c	; 0x20c <__bad_interrupt>
 164:	0c 94 06 01 	jmp	0x20c	; 0x20c <__bad_interrupt>
 168:	0c 94 06 01 	jmp	0x20c	; 0x20c <__bad_interrupt>
 16c:	0c 94 06 01 	jmp	0x20c	; 0x20c <__bad_interrupt>
 170:	0c 94 06 01 	jmp	0x20c	; 0x20c <__bad_interrupt>
 174:	0c 94 06 01 	jmp	0x20c	; 0x20c <__bad_interrupt>
 178:	0c 94 06 01 	jmp	0x20c	; 0x20c <__bad_interrupt>
 17c:	0c 94 06 01 	jmp	0x20c	; 0x20c <__bad_interrupt>
 180:	0c 94 06 01 	jmp	0x20c	; 0x20c <__bad_interrupt>
 184:	0c 94 06 01 	jmp	0x20c	; 0x20c <__bad_interrupt>
 188:	0c 94 06 01 	jmp	0x20c	; 0x20c <__bad_interrupt>
 18c:	0c 94 06 01 	jmp	0x20c	; 0x20c <__bad_interrupt>
 190:	0c 94 06 01 	jmp	0x20c	; 0x20c <__bad_interrupt>
 194:	0c 94 06 01 	jmp	0x20c	; 0x20c <__bad_interrupt>
 198:	0c 94 06 01 	jmp	0x20c	; 0x20c <__bad_interrupt>
 19c:	0c 94 06 01 	jmp	0x20c	; 0x20c <__bad_interrupt>
 1a0:	0c 94 06 01 	jmp	0x20c	; 0x20c <__bad_interrupt>
 1a4:	0c 94 06 01 	jmp	0x20c	; 0x20c <__bad_interrupt>
 1a8:	0c 94 06 01 	jmp	0x20c	; 0x20c <__bad_interrupt>
 1ac:	0c 94 06 01 	jmp	0x20c	; 0x20c <__bad_interrupt>
 1b0:	0c 94 cb 02 	jmp	0x596	; 0x596 <__vector_108>
 1b4:	0c 94 06 01 	jmp	0x20c	; 0x20c <__bad_interrupt>
 1b8:	0c 94 06 01 	jmp	0x20c	; 0x20c <__bad_interrupt>
 1bc:	0c 94 06 01 	jmp	0x20c	; 0x20c <__bad_interrupt>
 1c0:	0c 94 06 01 	jmp	0x20c	; 0x20c <__bad_interrupt>
 1c4:	0c 94 06 01 	jmp	0x20c	; 0x20c <__bad_interrupt>
 1c8:	0c 94 06 01 	jmp	0x20c	; 0x20c <__bad_interrupt>
 1cc:	0c 94 06 01 	jmp	0x20c	; 0x20c <__bad_interrupt>
 1d0:	0c 94 06 01 	jmp	0x20c	; 0x20c <__bad_interrupt>
 1d4:	0c 94 06 01 	jmp	0x20c	; 0x20c <__bad_interrupt>
 1d8:	0c 94 06 01 	jmp	0x20c	; 0x20c <__bad_interrupt>
 1dc:	0c 94 06 01 	jmp	0x20c	; 0x20c <__bad_interrupt>
 1e0:	0c 94 06 01 	jmp	0x20c	; 0x20c <__bad_interrupt>
 1e4:	0c 94 06 01 	jmp	0x20c	; 0x20c <__bad_interrupt>

000001e8 <__ctors_end>:
 1e8:	11 24       	eor	r1, r1
 1ea:	1f be       	out	0x3f, r1	; 63
 1ec:	cf ef       	ldi	r28, 0xFF	; 255
 1ee:	cd bf       	out	0x3d, r28	; 61
 1f0:	df e2       	ldi	r29, 0x2F	; 47
 1f2:	de bf       	out	0x3e, r29	; 62

000001f4 <__do_clear_bss>:
 1f4:	20 e2       	ldi	r18, 0x20	; 32
 1f6:	a0 e0       	ldi	r26, 0x00	; 0
 1f8:	b0 e2       	ldi	r27, 0x20	; 32
 1fa:	01 c0       	rjmp	.+2      	; 0x1fe <.do_clear_bss_start>

000001fc <.do_clear_bss_loop>:
 1fc:	1d 92       	st	X+, r1

000001fe <.do_clear_bss_start>:
 1fe:	a7 31       	cpi	r26, 0x17	; 23
 200:	b2 07       	cpc	r27, r18
 202:	e1 f7       	brne	.-8      	; 0x1fc <.do_clear_bss_loop>
 204:	0e 94 41 03 	call	0x682	; 0x682 <main>
 208:	0c 94 cd 03 	jmp	0x79a	; 0x79a <_exit>

0000020c <__bad_interrupt>:
 20c:	0c 94 00 00 	jmp	0	; 0x0 <__vectors>

00000210 <ADC_GET>:
 210:	80 91 60 02 	lds	r24, 0x0260
 214:	80 68       	ori	r24, 0x80	; 128
 216:	80 93 60 02 	sts	0x0260, r24
 21a:	80 91 63 02 	lds	r24, 0x0263
 21e:	88 23       	and	r24, r24
 220:	e1 f3       	breq	.-8      	; 0x21a <ADC_GET+0xa>
 222:	80 91 68 02 	lds	r24, 0x0268
 226:	80 68       	ori	r24, 0x80	; 128
 228:	80 93 68 02 	sts	0x0268, r24
 22c:	80 91 6b 02 	lds	r24, 0x026B
 230:	88 23       	and	r24, r24
 232:	e1 f3       	breq	.-8      	; 0x22c <ADC_GET+0x1c>
 234:	80 91 70 02 	lds	r24, 0x0270
 238:	80 68       	ori	r24, 0x80	; 128
 23a:	80 93 70 02 	sts	0x0270, r24
 23e:	80 91 73 02 	lds	r24, 0x0273
 242:	88 23       	and	r24, r24
 244:	e1 f3       	breq	.-8      	; 0x23e <ADC_GET+0x2e>
 246:	80 91 78 02 	lds	r24, 0x0278
 24a:	80 68       	ori	r24, 0x80	; 128
 24c:	80 93 78 02 	sts	0x0278, r24
 250:	80 91 7b 02 	lds	r24, 0x027B
 254:	88 23       	and	r24, r24
 256:	e1 f3       	breq	.-8      	; 0x250 <ADC_GET+0x40>
 258:	08 95       	ret

0000025a <ReadCalibrationByte>:
 25a:	92 e0       	ldi	r25, 0x02	; 2
 25c:	90 93 ca 01 	sts	0x01CA, r25
 260:	e8 2f       	mov	r30, r24
 262:	f0 e0       	ldi	r31, 0x00	; 0
 264:	84 91       	lpm	r24, Z
 266:	10 92 ca 01 	sts	0x01CA, r1
 26a:	08 95       	ret

0000026c <ADC_init>:
 26c:	cf 93       	push	r28
 26e:	df 93       	push	r29
 270:	84 e2       	ldi	r24, 0x24	; 36
 272:	0e 94 2d 01 	call	0x25a	; 0x25a <ReadCalibrationByte>
 276:	c0 e4       	ldi	r28, 0x40	; 64
 278:	d2 e0       	ldi	r29, 0x02	; 2
 27a:	8c 87       	std	Y+12, r24	; 0x0c
 27c:	85 e2       	ldi	r24, 0x25	; 37
 27e:	0e 94 2d 01 	call	0x25a	; 0x25a <ReadCalibrationByte>
 282:	8d 87       	std	Y+13, r24	; 0x0d
 284:	10 92 20 06 	sts	0x0620, r1
 288:	19 82       	std	Y+1, r1	; 0x01
 28a:	88 81       	ld	r24, Y
 28c:	81 60       	ori	r24, 0x01	; 1
 28e:	88 83       	st	Y, r24
 290:	19 82       	std	Y+1, r1	; 0x01
 292:	80 e3       	ldi	r24, 0x30	; 48
 294:	8a 83       	std	Y+2, r24	; 0x02
 296:	81 e0       	ldi	r24, 0x01	; 1
 298:	8c 83       	std	Y+4, r24	; 0x04
 29a:	9f e0       	ldi	r25, 0x0F	; 15
 29c:	9e 83       	std	Y+6, r25	; 0x06
 29e:	88 a3       	std	Y+32, r24	; 0x20
 2a0:	98 e0       	ldi	r25, 0x08	; 8
 2a2:	99 a3       	std	Y+33, r25	; 0x21
 2a4:	88 a7       	std	Y+40, r24	; 0x28
 2a6:	90 e1       	ldi	r25, 0x10	; 16
 2a8:	99 a7       	std	Y+41, r25	; 0x29
 2aa:	88 ab       	std	Y+48, r24	; 0x30
 2ac:	98 e1       	ldi	r25, 0x18	; 24
 2ae:	99 ab       	std	Y+49, r25	; 0x31
 2b0:	88 af       	std	Y+56, r24	; 0x38
 2b2:	80 e2       	ldi	r24, 0x20	; 32
 2b4:	89 af       	std	Y+57, r24	; 0x39
 2b6:	8f e9       	ldi	r24, 0x9F	; 159
 2b8:	9f e0       	ldi	r25, 0x0F	; 15
 2ba:	01 97       	sbiw	r24, 0x01	; 1
 2bc:	f1 f7       	brne	.-4      	; 0x2ba <ADC_init+0x4e>
 2be:	00 c0       	rjmp	.+0      	; 0x2c0 <ADC_init+0x54>
 2c0:	00 00       	nop
 2c2:	e0 e4       	ldi	r30, 0x40	; 64
 2c4:	f2 e0       	ldi	r31, 0x02	; 2
 2c6:	80 a1       	ldd	r24, Z+32	; 0x20
 2c8:	80 68       	ori	r24, 0x80	; 128
 2ca:	80 a3       	std	Z+32, r24	; 0x20
 2cc:	df 91       	pop	r29
 2ce:	cf 91       	pop	r28
 2d0:	08 95       	ret

000002d2 <Input_Init>:
 2d2:	e0 e0       	ldi	r30, 0x00	; 0
 2d4:	f6 e0       	ldi	r31, 0x06	; 6
 2d6:	8f ef       	ldi	r24, 0xFF	; 255
 2d8:	86 83       	std	Z+6, r24	; 0x06
 2da:	82 83       	std	Z+2, r24	; 0x02
 2dc:	80 ef       	ldi	r24, 0xF0	; 240
 2de:	e0 e6       	ldi	r30, 0x60	; 96
 2e0:	f6 e0       	ldi	r31, 0x06	; 6
 2e2:	82 83       	std	Z+2, r24	; 0x02
 2e4:	08 95       	ret

000002e6 <Input_get>:
 2e6:	e0 e0       	ldi	r30, 0x00	; 0
 2e8:	f6 e0       	ldi	r31, 0x06	; 6
 2ea:	80 85       	ldd	r24, Z+8	; 0x08
 2ec:	80 95       	com	r24
 2ee:	08 95       	ret

000002f0 <Input_Address_Get>:
 2f0:	e0 e6       	ldi	r30, 0x60	; 96
 2f2:	f6 e0       	ldi	r31, 0x06	; 6
 2f4:	80 85       	ldd	r24, Z+8	; 0x08
 2f6:	80 95       	com	r24
 2f8:	80 7f       	andi	r24, 0xF0	; 240
 2fa:	08 95       	ret

000002fc <Output_Init>:
 2fc:	e0 e8       	ldi	r30, 0x80	; 128
 2fe:	f6 e0       	ldi	r31, 0x06	; 6
 300:	8f ef       	ldi	r24, 0xFF	; 255
 302:	86 83       	std	Z+6, r24	; 0x06
 304:	81 83       	std	Z+1, r24	; 0x01
 306:	e0 ea       	ldi	r30, 0xA0	; 160
 308:	f6 e0       	ldi	r31, 0x06	; 6
 30a:	86 83       	std	Z+6, r24	; 0x06
 30c:	81 83       	std	Z+1, r24	; 0x01
 30e:	08 95       	ret

00000310 <Output_Set>:
 310:	28 2f       	mov	r18, r24
 312:	23 70       	andi	r18, 0x03	; 3
 314:	98 2f       	mov	r25, r24
 316:	9c 71       	andi	r25, 0x1C	; 28
 318:	82 95       	swap	r24
 31a:	86 95       	lsr	r24
 31c:	87 70       	andi	r24, 0x07	; 7
 31e:	99 0f       	add	r25, r25
 320:	99 0f       	add	r25, r25
 322:	99 0f       	add	r25, r25
 324:	22 0f       	add	r18, r18
 326:	92 2b       	or	r25, r18
 328:	29 2f       	mov	r18, r25
 32a:	26 7e       	andi	r18, 0xE6	; 230
 32c:	90 95       	com	r25
 32e:	96 7e       	andi	r25, 0xE6	; 230
 330:	e0 e8       	ldi	r30, 0x80	; 128
 332:	f6 e0       	ldi	r31, 0x06	; 6
 334:	25 83       	std	Z+5, r18	; 0x05
 336:	96 83       	std	Z+6, r25	; 0x06
 338:	e0 ea       	ldi	r30, 0xA0	; 160
 33a:	f6 e0       	ldi	r31, 0x06	; 6
 33c:	84 83       	std	Z+4, r24	; 0x04
 33e:	08 95       	ret

00000340 <UART_init>:
 340:	a0 e4       	ldi	r26, 0x40	; 64
 342:	b6 e0       	ldi	r27, 0x06	; 6
 344:	88 e0       	ldi	r24, 0x08	; 8
 346:	11 96       	adiw	r26, 0x01	; 1
 348:	8c 93       	st	X, r24
 34a:	11 97       	sbiw	r26, 0x01	; 1
 34c:	e0 ea       	ldi	r30, 0xA0	; 160
 34e:	f8 e0       	ldi	r31, 0x08	; 8
 350:	87 ed       	ldi	r24, 0xD7	; 215
 352:	86 83       	std	Z+6, r24	; 0x06
 354:	83 e9       	ldi	r24, 0x93	; 147
 356:	87 83       	std	Z+7, r24	; 0x07
 358:	80 e3       	ldi	r24, 0x30	; 48
 35a:	83 83       	std	Z+3, r24	; 0x03
 35c:	88 e1       	ldi	r24, 0x18	; 24
 35e:	84 83       	std	Z+4, r24	; 0x04
 360:	83 e0       	ldi	r24, 0x03	; 3
 362:	85 83       	std	Z+5, r24	; 0x05
 364:	80 e1       	ldi	r24, 0x10	; 16
 366:	11 96       	adiw	r26, 0x01	; 1
 368:	8c 93       	st	X, r24
 36a:	11 97       	sbiw	r26, 0x01	; 1
 36c:	15 96       	adiw	r26, 0x05	; 5
 36e:	8c 93       	st	X, r24
 370:	8a e5       	ldi	r24, 0x5A	; 90
 372:	80 93 0b 20 	sts	0x200B, r24
 376:	8d e0       	ldi	r24, 0x0D	; 13
 378:	80 93 10 20 	sts	0x2010, r24
 37c:	08 95       	ret

0000037e <UART_Packet_Received>:
 37e:	80 91 05 20 	lds	r24, 0x2005
 382:	08 95       	ret

00000384 <UART_Clr_Received>:
 384:	10 92 05 20 	sts	0x2005, r1
 388:	08 95       	ret

0000038a <UART_Send_Packet>:
 38a:	10 92 01 20 	sts	0x2001, r1
 38e:	8c e3       	ldi	r24, 0x3C	; 60
 390:	e0 ea       	ldi	r30, 0xA0	; 160
 392:	f8 e0       	ldi	r31, 0x08	; 8
 394:	83 83       	std	Z+3, r24	; 0x03
 396:	08 95       	ret

00000398 <__vector_27>:
 398:	1f 92       	push	r1
 39a:	0f 92       	push	r0
 39c:	0f b6       	in	r0, 0x3f	; 63
 39e:	0f 92       	push	r0
 3a0:	11 24       	eor	r1, r1
 3a2:	0b b6       	in	r0, 0x3b	; 59
 3a4:	0f 92       	push	r0
 3a6:	8f 93       	push	r24
 3a8:	9f 93       	push	r25
 3aa:	ef 93       	push	r30
 3ac:	ff 93       	push	r31
 3ae:	80 91 01 20 	lds	r24, 0x2001
 3b2:	86 30       	cpi	r24, 0x06	; 6
 3b4:	50 f4       	brcc	.+20     	; 0x3ca <__vector_27+0x32>
 3b6:	e8 2f       	mov	r30, r24
 3b8:	f0 e0       	ldi	r31, 0x00	; 0
 3ba:	e5 5f       	subi	r30, 0xF5	; 245
 3bc:	ff 4d       	sbci	r31, 0xDF	; 223
 3be:	90 81       	ld	r25, Z
 3c0:	90 93 a0 08 	sts	0x08A0, r25
 3c4:	8f 5f       	subi	r24, 0xFF	; 255
 3c6:	80 93 01 20 	sts	0x2001, r24
 3ca:	80 91 01 20 	lds	r24, 0x2001
 3ce:	86 30       	cpi	r24, 0x06	; 6
 3d0:	28 f0       	brcs	.+10     	; 0x3dc <__vector_27+0x44>
 3d2:	10 92 01 20 	sts	0x2001, r1
 3d6:	80 e3       	ldi	r24, 0x30	; 48
 3d8:	80 93 a3 08 	sts	0x08A3, r24
 3dc:	ff 91       	pop	r31
 3de:	ef 91       	pop	r30
 3e0:	9f 91       	pop	r25
 3e2:	8f 91       	pop	r24
 3e4:	0f 90       	pop	r0
 3e6:	0b be       	out	0x3b, r0	; 59
 3e8:	0f 90       	pop	r0
 3ea:	0f be       	out	0x3f, r0	; 63
 3ec:	0f 90       	pop	r0
 3ee:	1f 90       	pop	r1
 3f0:	18 95       	reti

000003f2 <__vector_25>:
 3f2:	1f 92       	push	r1
 3f4:	0f 92       	push	r0
 3f6:	0f b6       	in	r0, 0x3f	; 63
 3f8:	0f 92       	push	r0
 3fa:	11 24       	eor	r1, r1
 3fc:	0b b6       	in	r0, 0x3b	; 59
 3fe:	0f 92       	push	r0
 400:	2f 93       	push	r18
 402:	3f 93       	push	r19
 404:	4f 93       	push	r20
 406:	8f 93       	push	r24
 408:	9f 93       	push	r25
 40a:	ef 93       	push	r30
 40c:	ff 93       	push	r31
 40e:	40 91 a0 08 	lds	r20, 0x08A0
 412:	80 91 03 20 	lds	r24, 0x2003
 416:	88 23       	and	r24, r24
 418:	b1 f0       	breq	.+44     	; 0x446 <__vector_25+0x54>
 41a:	24 2f       	mov	r18, r20
 41c:	20 7f       	andi	r18, 0xF0	; 240
 41e:	30 e0       	ldi	r19, 0x00	; 0
 420:	80 91 02 20 	lds	r24, 0x2002
 424:	90 e0       	ldi	r25, 0x00	; 0
 426:	28 17       	cp	r18, r24
 428:	39 07       	cpc	r19, r25
 42a:	49 f4       	brne	.+18     	; 0x43e <__vector_25+0x4c>
 42c:	81 e0       	ldi	r24, 0x01	; 1
 42e:	80 93 04 20 	sts	0x2004, r24
 432:	80 91 00 20 	lds	r24, 0x2000
 436:	8f 5f       	subi	r24, 0xFF	; 255
 438:	80 93 00 20 	sts	0x2000, r24
 43c:	04 c0       	rjmp	.+8      	; 0x446 <__vector_25+0x54>
 43e:	10 92 00 20 	sts	0x2000, r1
 442:	10 92 04 20 	sts	0x2004, r1
 446:	80 91 04 20 	lds	r24, 0x2004
 44a:	4a 35       	cpi	r20, 0x5A	; 90
 44c:	41 f4       	brne	.+16     	; 0x45e <__vector_25+0x6c>
 44e:	81 11       	cpse	r24, r1
 450:	06 c0       	rjmp	.+12     	; 0x45e <__vector_25+0x6c>
 452:	10 92 00 20 	sts	0x2000, r1
 456:	81 e0       	ldi	r24, 0x01	; 1
 458:	80 93 03 20 	sts	0x2003, r24
 45c:	24 c0       	rjmp	.+72     	; 0x4a6 <__vector_25+0xb4>
 45e:	88 23       	and	r24, r24
 460:	11 f1       	breq	.+68     	; 0x4a6 <__vector_25+0xb4>
 462:	10 92 03 20 	sts	0x2003, r1
 466:	80 91 00 20 	lds	r24, 0x2000
 46a:	e8 2f       	mov	r30, r24
 46c:	f0 e0       	ldi	r31, 0x00	; 0
 46e:	ef 5e       	subi	r30, 0xEF	; 239
 470:	ff 4d       	sbci	r31, 0xDF	; 223
 472:	40 83       	st	Z, r20
 474:	8f 5f       	subi	r24, 0xFF	; 255
 476:	80 93 00 20 	sts	0x2000, r24
 47a:	80 91 16 20 	lds	r24, 0x2016
 47e:	8d 30       	cpi	r24, 0x0D	; 13
 480:	51 f4       	brne	.+20     	; 0x496 <__vector_25+0xa4>
 482:	10 92 00 20 	sts	0x2000, r1
 486:	10 92 04 20 	sts	0x2004, r1
 48a:	81 e0       	ldi	r24, 0x01	; 1
 48c:	80 93 05 20 	sts	0x2005, r24
 490:	80 e3       	ldi	r24, 0x30	; 48
 492:	80 93 16 20 	sts	0x2016, r24
 496:	80 91 00 20 	lds	r24, 0x2000
 49a:	87 30       	cpi	r24, 0x07	; 7
 49c:	20 f0       	brcs	.+8      	; 0x4a6 <__vector_25+0xb4>
 49e:	10 92 00 20 	sts	0x2000, r1
 4a2:	10 92 04 20 	sts	0x2004, r1
 4a6:	ff 91       	pop	r31
 4a8:	ef 91       	pop	r30
 4aa:	9f 91       	pop	r25
 4ac:	8f 91       	pop	r24
 4ae:	4f 91       	pop	r20
 4b0:	3f 91       	pop	r19
 4b2:	2f 91       	pop	r18
 4b4:	0f 90       	pop	r0
 4b6:	0b be       	out	0x3b, r0	; 59
 4b8:	0f 90       	pop	r0
 4ba:	0f be       	out	0x3f, r0	; 63
 4bc:	0f 90       	pop	r0
 4be:	1f 90       	pop	r1
 4c0:	18 95       	reti

000004c2 <UART_get_packet_command>:
 4c2:	80 91 12 20 	lds	r24, 0x2012
 4c6:	8f 70       	andi	r24, 0x0F	; 15
 4c8:	08 95       	ret

000004ca <UART_get_output>:
 4ca:	80 91 13 20 	lds	r24, 0x2013
 4ce:	08 95       	ret

000004d0 <UART_shoot_trigger>:
 4d0:	80 91 14 20 	lds	r24, 0x2014
 4d4:	08 95       	ret

000004d6 <UART_get_shoot_level>:
 4d6:	80 91 15 20 	lds	r24, 0x2015
 4da:	08 95       	ret

000004dc <UART_set_tx_command>:
 4dc:	90 91 02 20 	lds	r25, 0x2002
 4e0:	98 2b       	or	r25, r24
 4e2:	90 93 0c 20 	sts	0x200C, r25
 4e6:	08 95       	ret

000004e8 <UART_set_tx_input>:
 4e8:	80 93 0d 20 	sts	0x200D, r24
 4ec:	08 95       	ret

000004ee <UART_set_tx_adc>:
 4ee:	80 93 0e 20 	sts	0x200E, r24
 4f2:	60 93 0f 20 	sts	0x200F, r22
 4f6:	08 95       	ret

000004f8 <UART_Address_set>:
 4f8:	80 93 02 20 	sts	0x2002, r24
 4fc:	08 95       	ret

000004fe <Shoot_Level_Init>:
 4fe:	e0 e4       	ldi	r30, 0x40	; 64
 500:	fa e0       	ldi	r31, 0x0A	; 10
 502:	81 e1       	ldi	r24, 0x11	; 17
 504:	81 83       	std	Z+1, r24	; 0x01
 506:	80 e4       	ldi	r24, 0x40	; 64
 508:	90 e0       	ldi	r25, 0x00	; 0
 50a:	80 a7       	std	Z+40, r24	; 0x28
 50c:	91 a7       	std	Z+41, r25	; 0x29
 50e:	13 82       	std	Z+3, r1	; 0x03
 510:	e0 e0       	ldi	r30, 0x00	; 0
 512:	fb e0       	ldi	r31, 0x0B	; 11
 514:	11 82       	std	Z+1, r1	; 0x01
 516:	10 a2       	std	Z+32, r1	; 0x20
 518:	11 a2       	std	Z+33, r1	; 0x21
 51a:	81 e0       	ldi	r24, 0x01	; 1
 51c:	84 87       	std	Z+12, r24	; 0x0c
 51e:	87 e0       	ldi	r24, 0x07	; 7
 520:	86 83       	std	Z+6, r24	; 0x06
 522:	10 82       	st	Z, r1
 524:	10 92 08 20 	sts	0x2008, r1
 528:	08 95       	ret

0000052a <Shoot_Level_Set>:
 52a:	90 91 08 20 	lds	r25, 0x2008
 52e:	91 11       	cpse	r25, r1
 530:	31 c0       	rjmp	.+98     	; 0x594 <Shoot_Level_Set+0x6a>
 532:	28 2f       	mov	r18, r24
 534:	30 e0       	ldi	r19, 0x00	; 0
 536:	90 91 09 20 	lds	r25, 0x2009
 53a:	29 1b       	sub	r18, r25
 53c:	31 09       	sbc	r19, r1
 53e:	20 93 06 20 	sts	0x2006, r18
 542:	30 93 07 20 	sts	0x2007, r19
 546:	80 93 09 20 	sts	0x2009, r24
 54a:	88 e0       	ldi	r24, 0x08	; 8
 54c:	12 16       	cp	r1, r18
 54e:	13 06       	cpc	r1, r19
 550:	1c f4       	brge	.+6      	; 0x558 <Shoot_Level_Set+0x2e>
 552:	80 93 85 06 	sts	0x0685, r24
 556:	09 c0       	rjmp	.+18     	; 0x56a <Shoot_Level_Set+0x40>
 558:	80 93 86 06 	sts	0x0686, r24
 55c:	31 95       	neg	r19
 55e:	21 95       	neg	r18
 560:	31 09       	sbc	r19, r1
 562:	20 93 06 20 	sts	0x2006, r18
 566:	30 93 07 20 	sts	0x2007, r19
 56a:	80 91 06 20 	lds	r24, 0x2006
 56e:	90 91 07 20 	lds	r25, 0x2007
 572:	18 16       	cp	r1, r24
 574:	19 06       	cpc	r1, r25
 576:	74 f4       	brge	.+28     	; 0x594 <Shoot_Level_Set+0x6a>
 578:	8b e1       	ldi	r24, 0x1B	; 27
 57a:	97 e0       	ldi	r25, 0x07	; 7
 57c:	80 93 26 0b 	sts	0x0B26, r24
 580:	90 93 27 0b 	sts	0x0B27, r25
 584:	86 e0       	ldi	r24, 0x06	; 6
 586:	80 93 40 0a 	sts	0x0A40, r24
 58a:	80 93 00 0b 	sts	0x0B00, r24
 58e:	81 e0       	ldi	r24, 0x01	; 1
 590:	80 93 08 20 	sts	0x2008, r24
 594:	08 95       	ret

00000596 <__vector_108>:
 596:	1f 92       	push	r1
 598:	0f 92       	push	r0
 59a:	0f b6       	in	r0, 0x3f	; 63
 59c:	0f 92       	push	r0
 59e:	11 24       	eor	r1, r1
 5a0:	8f 93       	push	r24
 5a2:	9f 93       	push	r25
 5a4:	80 91 06 20 	lds	r24, 0x2006
 5a8:	90 91 07 20 	lds	r25, 0x2007
 5ac:	01 97       	sbiw	r24, 0x01	; 1
 5ae:	80 93 06 20 	sts	0x2006, r24
 5b2:	90 93 07 20 	sts	0x2007, r25
 5b6:	10 92 40 0a 	sts	0x0A40, r1
 5ba:	10 92 00 0b 	sts	0x0B00, r1
 5be:	10 92 20 0b 	sts	0x0B20, r1
 5c2:	10 92 21 0b 	sts	0x0B21, r1
 5c6:	18 16       	cp	r1, r24
 5c8:	19 06       	cpc	r1, r25
 5ca:	64 f4       	brge	.+24     	; 0x5e4 <__vector_108+0x4e>
 5cc:	8b e1       	ldi	r24, 0x1B	; 27
 5ce:	97 e0       	ldi	r25, 0x07	; 7
 5d0:	80 93 26 0b 	sts	0x0B26, r24
 5d4:	90 93 27 0b 	sts	0x0B27, r25
 5d8:	86 e0       	ldi	r24, 0x06	; 6
 5da:	80 93 40 0a 	sts	0x0A40, r24
 5de:	80 93 00 0b 	sts	0x0B00, r24
 5e2:	06 c0       	rjmp	.+12     	; 0x5f0 <__vector_108+0x5a>
 5e4:	10 92 08 20 	sts	0x2008, r1
 5e8:	10 92 06 20 	sts	0x2006, r1
 5ec:	10 92 07 20 	sts	0x2007, r1
 5f0:	80 e1       	ldi	r24, 0x10	; 16
 5f2:	80 93 86 06 	sts	0x0686, r24
 5f6:	9f 91       	pop	r25
 5f8:	8f 91       	pop	r24
 5fa:	0f 90       	pop	r0
 5fc:	0f be       	out	0x3f, r0	; 63
 5fe:	0f 90       	pop	r0
 600:	1f 90       	pop	r1
 602:	18 95       	reti

00000604 <Shoot_Puls_Init>:
 604:	e0 e0       	ldi	r30, 0x00	; 0
 606:	fa e0       	ldi	r31, 0x0A	; 10
 608:	11 82       	std	Z+1, r1	; 0x01
 60a:	10 a2       	std	Z+32, r1	; 0x20
 60c:	11 a2       	std	Z+33, r1	; 0x21
 60e:	81 e0       	ldi	r24, 0x01	; 1
 610:	84 87       	std	Z+12, r24	; 0x0c
 612:	83 e0       	ldi	r24, 0x03	; 3
 614:	86 83       	std	Z+6, r24	; 0x06
 616:	10 92 0a 20 	sts	0x200A, r1
 61a:	08 95       	ret

0000061c <Shoot_Trigger>:
 61c:	90 91 0a 20 	lds	r25, 0x200A
 620:	91 11       	cpse	r25, r1
 622:	0f c0       	rjmp	.+30     	; 0x642 <Shoot_Trigger+0x26>
 624:	21 e0       	ldi	r18, 0x01	; 1
 626:	20 93 0a 20 	sts	0x200A, r18
 62a:	90 e0       	ldi	r25, 0x00	; 0
 62c:	88 0f       	add	r24, r24
 62e:	99 1f       	adc	r25, r25
 630:	80 93 26 0a 	sts	0x0A26, r24
 634:	90 93 27 0a 	sts	0x0A27, r25
 638:	20 93 85 06 	sts	0x0685, r18
 63c:	87 e0       	ldi	r24, 0x07	; 7
 63e:	80 93 00 0a 	sts	0x0A00, r24
 642:	08 95       	ret

00000644 <__vector_47>:
 644:	1f 92       	push	r1
 646:	0f 92       	push	r0
 648:	0f b6       	in	r0, 0x3f	; 63
 64a:	0f 92       	push	r0
 64c:	11 24       	eor	r1, r1
 64e:	0b b6       	in	r0, 0x3b	; 59
 650:	0f 92       	push	r0
 652:	8f 93       	push	r24
 654:	ef 93       	push	r30
 656:	ff 93       	push	r31
 658:	81 e0       	ldi	r24, 0x01	; 1
 65a:	e0 e8       	ldi	r30, 0x80	; 128
 65c:	f6 e0       	ldi	r31, 0x06	; 6
 65e:	86 83       	std	Z+6, r24	; 0x06
 660:	e0 e0       	ldi	r30, 0x00	; 0
 662:	fa e0       	ldi	r31, 0x0A	; 10
 664:	10 82       	st	Z, r1
 666:	10 a2       	std	Z+32, r1	; 0x20
 668:	11 a2       	std	Z+33, r1	; 0x21
 66a:	10 92 0a 20 	sts	0x200A, r1
 66e:	ff 91       	pop	r31
 670:	ef 91       	pop	r30
 672:	8f 91       	pop	r24
 674:	0f 90       	pop	r0
 676:	0b be       	out	0x3b, r0	; 59
 678:	0f 90       	pop	r0
 67a:	0f be       	out	0x3f, r0	; 63
 67c:	0f 90       	pop	r0
 67e:	1f 90       	pop	r1
 680:	18 95       	reti

00000682 <main>:
 682:	82 e0       	ldi	r24, 0x02	; 2
 684:	80 93 86 06 	sts	0x0686, r24
 688:	81 e0       	ldi	r24, 0x01	; 1
 68a:	80 93 86 06 	sts	0x0686, r24
 68e:	8b ec       	ldi	r24, 0xCB	; 203
 690:	80 93 52 00 	sts	0x0052, r24
 694:	80 91 50 00 	lds	r24, 0x0050
 698:	88 60       	ori	r24, 0x08	; 8
 69a:	80 93 50 00 	sts	0x0050, r24
 69e:	80 91 51 00 	lds	r24, 0x0051
 6a2:	83 ff       	sbrs	r24, 3
 6a4:	fc cf       	rjmp	.-8      	; 0x69e <main+0x1c>
 6a6:	c8 ed       	ldi	r28, 0xD8	; 216
 6a8:	c4 bf       	out	0x34, r28	; 52
 6aa:	83 e0       	ldi	r24, 0x03	; 3
 6ac:	80 93 40 00 	sts	0x0040, r24
 6b0:	c4 bf       	out	0x34, r28	; 52
 6b2:	10 92 41 00 	sts	0x0041, r1
 6b6:	0e 94 bf 03 	call	0x77e	; 0x77e <initUSARTC0>
 6ba:	0e 94 a0 01 	call	0x340	; 0x340 <UART_init>
 6be:	0e 94 36 01 	call	0x26c	; 0x26c <ADC_init>
 6c2:	0e 94 7e 01 	call	0x2fc	; 0x2fc <Output_Init>
 6c6:	0e 94 69 01 	call	0x2d2	; 0x2d2 <Input_Init>
 6ca:	0e 94 02 03 	call	0x604	; 0x604 <Shoot_Puls_Init>
 6ce:	0e 94 78 01 	call	0x2f0	; 0x2f0 <Input_Address_Get>
 6d2:	0e 94 7c 02 	call	0x4f8	; 0x4f8 <UART_Address_set>
 6d6:	90 e0       	ldi	r25, 0x00	; 0
 6d8:	8f e1       	ldi	r24, 0x1F	; 31
 6da:	08 b6       	in	r0, 0x38	; 56
 6dc:	18 be       	out	0x38, r1	; 56
 6de:	c4 bf       	out	0x34, r28	; 52
 6e0:	80 93 80 00 	sts	0x0080, r24
 6e4:	90 91 82 00 	lds	r25, 0x0082
 6e8:	91 fd       	sbrc	r25, 1
 6ea:	fc cf       	rjmp	.-8      	; 0x6e4 <main+0x62>
 6ec:	08 be       	out	0x38, r0	; 56
 6ee:	87 e0       	ldi	r24, 0x07	; 7
 6f0:	80 93 a2 00 	sts	0x00A2, r24
 6f4:	78 94       	sei
 6f6:	0e 94 7f 02 	call	0x4fe	; 0x4fe <Shoot_Level_Init>
 6fa:	a8 95       	wdr
 6fc:	0e 94 bf 01 	call	0x37e	; 0x37e <UART_Packet_Received>
 700:	88 23       	and	r24, r24
 702:	d1 f1       	breq	.+116    	; 0x778 <main+0xf6>
 704:	0e 94 61 02 	call	0x4c2	; 0x4c2 <UART_get_packet_command>
 708:	c8 2f       	mov	r28, r24
 70a:	0e 94 73 01 	call	0x2e6	; 0x2e6 <Input_get>
 70e:	0e 94 74 02 	call	0x4e8	; 0x4e8 <UART_set_tx_input>
 712:	0e 94 65 02 	call	0x4ca	; 0x4ca <UART_get_output>
 716:	0e 94 88 01 	call	0x310	; 0x310 <Output_Set>
 71a:	c2 30       	cpi	r28, 0x02	; 2
 71c:	91 f0       	breq	.+36     	; 0x742 <main+0xc0>
 71e:	38 f4       	brcc	.+14     	; 0x72e <main+0xac>
 720:	c1 30       	cpi	r28, 0x01	; 1
 722:	29 f5       	brne	.+74     	; 0x76e <main+0xec>
 724:	0e 94 6b 02 	call	0x4d6	; 0x4d6 <UART_get_shoot_level>
 728:	0e 94 95 02 	call	0x52a	; 0x52a <Shoot_Level_Set>
 72c:	0e c0       	rjmp	.+28     	; 0x74a <main+0xc8>
 72e:	c3 30       	cpi	r28, 0x03	; 3
 730:	71 f0       	breq	.+28     	; 0x74e <main+0xcc>
 732:	c4 30       	cpi	r28, 0x04	; 4
 734:	e1 f4       	brne	.+56     	; 0x76e <main+0xec>
 736:	0e 94 6b 02 	call	0x4d6	; 0x4d6 <UART_get_shoot_level>
 73a:	0e 94 95 02 	call	0x52a	; 0x52a <Shoot_Level_Set>
 73e:	83 e0       	ldi	r24, 0x03	; 3
 740:	14 c0       	rjmp	.+40     	; 0x76a <main+0xe8>
 742:	0e 94 68 02 	call	0x4d0	; 0x4d0 <UART_shoot_trigger>
 746:	0e 94 0e 03 	call	0x61c	; 0x61c <Shoot_Trigger>
 74a:	81 e0       	ldi	r24, 0x01	; 1
 74c:	0e c0       	rjmp	.+28     	; 0x76a <main+0xe8>
 74e:	0e 94 6b 02 	call	0x4d6	; 0x4d6 <UART_get_shoot_level>
 752:	0e 94 95 02 	call	0x52a	; 0x52a <Shoot_Level_Set>
 756:	82 e0       	ldi	r24, 0x02	; 2
 758:	0e 94 6e 02 	call	0x4dc	; 0x4dc <UART_set_tx_command>
 75c:	60 91 50 02 	lds	r22, 0x0250
 760:	80 91 51 02 	lds	r24, 0x0251
 764:	0e 94 77 02 	call	0x4ee	; 0x4ee <UART_set_tx_adc>
 768:	02 c0       	rjmp	.+4      	; 0x76e <main+0xec>
 76a:	0e 94 6e 02 	call	0x4dc	; 0x4dc <UART_set_tx_command>
 76e:	0e 94 c2 01 	call	0x384	; 0x384 <UART_Clr_Received>
 772:	0e 94 c5 01 	call	0x38a	; 0x38a <UART_Send_Packet>
 776:	c1 cf       	rjmp	.-126    	; 0x6fa <main+0x78>
 778:	0e 94 08 01 	call	0x210	; 0x210 <ADC_GET>
 77c:	be cf       	rjmp	.-132    	; 0x6fa <main+0x78>

0000077e <initUSARTC0>:
 77e:	88 e0       	ldi	r24, 0x08	; 8
 780:	80 93 60 06 	sts	0x0660, r24
 784:	e0 ea       	ldi	r30, 0xA0	; 160
 786:	f9 e0       	ldi	r31, 0x09	; 9
 788:	8c e0       	ldi	r24, 0x0C	; 12
 78a:	86 83       	std	Z+6, r24	; 0x06
 78c:	17 82       	std	Z+7, r1	; 0x07
 78e:	13 82       	std	Z+3, r1	; 0x03
 790:	88 e1       	ldi	r24, 0x18	; 24
 792:	84 83       	std	Z+4, r24	; 0x04
 794:	83 e0       	ldi	r24, 0x03	; 3
 796:	85 83       	std	Z+5, r24	; 0x05
 798:	08 95       	ret

0000079a <_exit>:
 79a:	f8 94       	cli

0000079c <__stop_program>:
 79c:	ff cf       	rjmp	.-2      	; 0x79c <__stop_program>
